; Function Attrs: mustprogress uwtable
define hidden noundef ptr @_Z33pj_projection_specific_setup_kav7P8PJconsts(ptr noundef %0) local_unnamed_addr #0 {
  %2 = tail call noalias dereferenceable_or_null(32) ptr @calloc(i64 noundef 1, i64 noundef 32) #4
  %3 = icmp eq ptr %2, null
  br i1 %3, label %4, label %6

4:                                                ; preds = %1
  %5 = tail call noundef ptr @_Z21pj_default_destructorP8PJconstsi(ptr noundef %0, i32 noundef 4096)
  br label %12

6:                                                ; preds = %1
  %7 = getelementptr inbounds i8, ptr %0, i64 88
  store ptr %2, ptr %7, align 8
  store <2 x double> <double 0x3FEBB67AE8584B4E, double 1.000000e+00>, ptr %2, align 8
  %8 = getelementptr inbounds i8, ptr %2, i64 24
  store double 0x3FD37423899A1558, ptr %8, align 8
  %9 = getelementptr inbounds i8, ptr %0, i64 216
  store double 0.000000e+00, ptr %9, align 8
  %10 = getelementptr inbounds i8, ptr %0, i64 112
  store ptr @_ZL14eck3_s_inverse5PJ_XYP8PJconsts, ptr %10, align 8
  %11 = getelementptr inbounds i8, ptr %0, i64 104
  store ptr @_ZL14eck3_s_forward5PJ_LPP8PJconsts, ptr %11, align 8
  br label %12

12:                                               ; preds = %6, %4
  %.0 = phi ptr [ %5, %4 ], [ %0, %6 ]
  ret ptr %.0
}